; Function Attrs: mustprogress uwtable
define internal noundef ptr @_ZL13ustrenum_nextP12UEnumerationPiP10UErrorCode(ptr noundef readonly captures(none) %0, ptr noundef %1, ptr noundef %2) #9 {
  %4 = getelementptr inbounds nuw i8, ptr %0, i64 8
  %5 = load ptr, ptr %4, align 8, !tbaa !27
  %6 = load ptr, ptr %5, align 8, !tbaa !3
  %7 = getelementptr inbounds nuw i8, ptr %6, i64 40
  %8 = load ptr, ptr %7, align 8
  %9 = tail call noundef ptr %8(ptr noundef nonnull align 8 dereferenceable(116) %5, ptr noundef %1, ptr noundef nonnull align 4 dereferenceable(4) %2)
  ret ptr %9
}